target datalayout = "e-m:e-p270:32:32-p271:32:32-p272:64:64-i64:64-i128:128-f80:128-n8:16:32:64-S128"
target triple = "x86_64-pc-linux-gnu"

@s_Truths6Neg = internal global [6 x i64] [i64 6148914691236517205, i64 3689348814741910323, i64 1085102592571150095, i64 71777214294589695, i64 281470681808895, i64 4294967295], align 16
@s_Truths6 = internal global [6 x i64] [i64 -6148914691236517206, i64 -3689348814741910324, i64 -1085102592571150096, i64 -71777214294589696, i64 -281470681808896, i64 -4294967296], align 16

; Function Attrs: nounwind uwtable
define internal i64 @Abc_Tt6Stretch(i64 noundef %0, i32 noundef %1) #0 {
  %3 = alloca i64, align 8
  %4 = alloca i32, align 4
  store i64 %0, ptr %3, align 8
  store i32 %1, ptr %4, align 4
  %5 = load i32, ptr %4, align 4
  %6 = icmp eq i32 %5, 0
  br i1 %6, label %7, label %16

7:                                                ; preds = %2
  %8 = load i32, ptr %4, align 4
  %9 = add nsw i32 %8, 1
  store i32 %9, ptr %4, align 4
  %10 = load i64, ptr %3, align 8
  %11 = and i64 %10, 1
  %12 = load i64, ptr %3, align 8
  %13 = and i64 %12, 1
  %14 = shl i64 %13, 1
  %15 = or i64 %11, %14
  store i64 %15, ptr %3, align 8
  br label %16

16:                                               ; preds = %7, %2
  %17 = load i32, ptr %4, align 4
  %18 = icmp eq i32 %17, 1
  br i1 %18, label %19, label %28

19:                                               ; preds = %16
  %20 = load i32, ptr %4, align 4
  %21 = add nsw i32 %20, 1
  store i32 %21, ptr %4, align 4
  %22 = load i64, ptr %3, align 8
  %23 = and i64 %22, 3
  %24 = load i64, ptr %3, align 8
  %25 = and i64 %24, 3
  %26 = shl i64 %25, 2
  %27 = or i64 %23, %26
  store i64 %27, ptr %3, align 8
  br label %28

28:                                               ; preds = %19, %16
  %29 = load i32, ptr %4, align 4
  %30 = icmp eq i32 %29, 2
  br i1 %30, label %31, label %40

31:                                               ; preds = %28
  %32 = load i32, ptr %4, align 4
  %33 = add nsw i32 %32, 1
  store i32 %33, ptr %4, align 4
  %34 = load i64, ptr %3, align 8
  %35 = and i64 %34, 15
  %36 = load i64, ptr %3, align 8
  %37 = and i64 %36, 15
  %38 = shl i64 %37, 4
  %39 = or i64 %35, %38
  store i64 %39, ptr %3, align 8
  br label %40

40:                                               ; preds = %31, %28
  %41 = load i32, ptr %4, align 4
  %42 = icmp eq i32 %41, 3
  br i1 %42, label %43, label %52

43:                                               ; preds = %40
  %44 = load i32, ptr %4, align 4
  %45 = add nsw i32 %44, 1
  store i32 %45, ptr %4, align 4
  %46 = load i64, ptr %3, align 8
  %47 = and i64 %46, 255
  %48 = load i64, ptr %3, align 8
  %49 = and i64 %48, 255
  %50 = shl i64 %49, 8
  %51 = or i64 %47, %50
  store i64 %51, ptr %3, align 8
  br label %52

52:                                               ; preds = %43, %40
  %53 = load i32, ptr %4, align 4
  %54 = icmp eq i32 %53, 4
  br i1 %54, label %55, label %64

55:                                               ; preds = %52
  %56 = load i32, ptr %4, align 4
  %57 = add nsw i32 %56, 1
  store i32 %57, ptr %4, align 4
  %58 = load i64, ptr %3, align 8
  %59 = and i64 %58, 65535
  %60 = load i64, ptr %3, align 8
  %61 = and i64 %60, 65535
  %62 = shl i64 %61, 16
  %63 = or i64 %59, %62
  store i64 %63, ptr %3, align 8
  br label %64

64:                                               ; preds = %55, %52
  %65 = load i32, ptr %4, align 4
  %66 = icmp eq i32 %65, 5
  br i1 %66, label %67, label %76

67:                                               ; preds = %64
  %68 = load i32, ptr %4, align 4
  %69 = add nsw i32 %68, 1
  store i32 %69, ptr %4, align 4
  %70 = load i64, ptr %3, align 8
  %71 = and i64 %70, 4294967295
  %72 = load i64, ptr %3, align 8
  %73 = and i64 %72, 4294967295
  %74 = shl i64 %73, 32
  %75 = or i64 %71, %74
  store i64 %75, ptr %3, align 8
  br label %76

76:                                               ; preds = %67, %64
  %77 = load i64, ptr %3, align 8
  ret i64 %77
}

; Function Attrs: nounwind uwtable
define internal void @Abc_TtSetHex(ptr noundef %0, i32 noundef %1, i32 noundef %2) #0 {
  %4 = alloca ptr, align 8
  %5 = alloca i32, align 4
  %6 = alloca i32, align 4
  store ptr %0, ptr %4, align 8
  store i32 %1, ptr %5, align 4
  store i32 %2, ptr %6, align 4
  %7 = load i32, ptr %6, align 4
  %8 = sext i32 %7 to i64
  %9 = load i32, ptr %5, align 4
  %10 = shl i32 %9, 2
  %11 = and i32 %10, 63
  %12 = zext i32 %11 to i64
  %13 = shl i64 %8, %12
  %14 = load ptr, ptr %4, align 8
  %15 = load i32, ptr %5, align 4
  %16 = ashr i32 %15, 4
  %17 = sext i32 %16 to i64
  %18 = getelementptr inbounds i64, ptr %14, i64 %17
  %19 = load i64, ptr %18, align 8
  %20 = or i64 %19, %13
  store i64 %20, ptr %18, align 8
  ret void
}

; Function Attrs: nounwind uwtable
define internal i32 @Abc_TtReadHexDigit(i8 noundef signext %0) #0 {
  %2 = alloca i32, align 4
  %3 = alloca i8, align 1
  store i8 %0, ptr %3, align 1
  %4 = load i8, ptr %3, align 1
  %5 = sext i8 %4 to i32
  %6 = icmp sge i32 %5, 48
  br i1 %6, label %7, label %15

7:                                                ; preds = %1
  %8 = load i8, ptr %3, align 1
  %9 = sext i8 %8 to i32
  %10 = icmp sle i32 %9, 57
  br i1 %10, label %11, label %15

11:                                               ; preds = %7
  %12 = load i8, ptr %3, align 1
  %13 = sext i8 %12 to i32
  %14 = sub nsw i32 %13, 48
  store i32 %14, ptr %2, align 4
  br label %42

15:                                               ; preds = %7, %1
  %16 = load i8, ptr %3, align 1
  %17 = sext i8 %16 to i32
  %18 = icmp sge i32 %17, 65
  br i1 %18, label %19, label %28

19:                                               ; preds = %15
  %20 = load i8, ptr %3, align 1
  %21 = sext i8 %20 to i32
  %22 = icmp sle i32 %21, 70
  br i1 %22, label %23, label %28

23:                                               ; preds = %19
  %24 = load i8, ptr %3, align 1
  %25 = sext i8 %24 to i32
  %26 = sub nsw i32 %25, 65
  %27 = add nsw i32 %26, 10
  store i32 %27, ptr %2, align 4
  br label %42

28:                                               ; preds = %19, %15
  %29 = load i8, ptr %3, align 1
  %30 = sext i8 %29 to i32
  %31 = icmp sge i32 %30, 97
  br i1 %31, label %32, label %41

32:                                               ; preds = %28
  %33 = load i8, ptr %3, align 1
  %34 = sext i8 %33 to i32
  %35 = icmp sle i32 %34, 102
  br i1 %35, label %36, label %41

36:                                               ; preds = %32
  %37 = load i8, ptr %3, align 1
  %38 = sext i8 %37 to i32
  %39 = sub nsw i32 %38, 97
  %40 = add nsw i32 %39, 10
  store i32 %40, ptr %2, align 4
  br label %42

41:                                               ; preds = %32, %28
  store i32 -1, ptr %2, align 4
  br label %42

42:                                               ; preds = %41, %36, %23, %11
  %43 = load i32, ptr %2, align 4
  ret i32 %43
}

; Function Attrs: nounwind uwtable
define internal i32 @Abc_TtWordNum(i32 noundef %0) #0 {
  %2 = alloca i32, align 4
  store i32 %0, ptr %2, align 4
  %3 = load i32, ptr %2, align 4
  %4 = icmp sle i32 %3, 6
  br i1 %4, label %5, label %6

5:                                                ; preds = %1
  br label %10

6:                                                ; preds = %1
  %7 = load i32, ptr %2, align 4
  %8 = sub nsw i32 %7, 6
  %9 = shl i32 1, %8
  br label %10

10:                                               ; preds = %6, %5
  %11 = phi i32 [ 1, %5 ], [ %9, %6 ]
  ret i32 %11
}

; Function Attrs: nounwind uwtable
define internal i32 @Abc_Base2Log(i32 noundef %0) #0 {
  %2 = alloca i32, align 4
  %3 = alloca i32, align 4
  %4 = alloca i32, align 4
  store i32 %0, ptr %3, align 4
  %5 = load i32, ptr %3, align 4
  %6 = icmp ult i32 %5, 2
  br i1 %6, label %7, label %9

7:                                                ; preds = %1
  %8 = load i32, ptr %3, align 4
  store i32 %8, ptr %2, align 4
  br label %23

9:                                                ; preds = %1
  store i32 0, ptr %4, align 4
  %10 = load i32, ptr %3, align 4
  %11 = add i32 %10, -1
  store i32 %11, ptr %3, align 4
  br label %12

12:                                               ; preds = %16, %9
  %13 = load i32, ptr %3, align 4
  %14 = icmp ne i32 %13, 0
  br i1 %14, label %15, label %21

15:                                               ; preds = %12
  br label %16

16:                                               ; preds = %15
  %17 = load i32, ptr %3, align 4
  %18 = lshr i32 %17, 1
  store i32 %18, ptr %3, align 4
  %19 = load i32, ptr %4, align 4
  %20 = add nsw i32 %19, 1
  store i32 %20, ptr %4, align 4
  br label %12, !llvm.loop !31

21:                                               ; preds = %12
  %22 = load i32, ptr %4, align 4
  store i32 %22, ptr %2, align 4
  br label %23

23:                                               ; preds = %21, %7
  %24 = load i32, ptr %2, align 4
  ret i32 %24
}

; Function Attrs: nounwind uwtable
define internal i32 @Abc_TtIsHexDigit(i8 noundef signext %0) #0 {
  %2 = alloca i8, align 1
  store i8 %0, ptr %2, align 1
  %3 = load i8, ptr %2, align 1
  %4 = sext i8 %3 to i32
  %5 = icmp sge i32 %4, 48
  br i1 %5, label %6, label %10

6:                                                ; preds = %1
  %7 = load i8, ptr %2, align 1
  %8 = sext i8 %7 to i32
  %9 = icmp sle i32 %8, 57
  br i1 %9, label %28, label %10

10:                                               ; preds = %6, %1
  %11 = load i8, ptr %2, align 1
  %12 = sext i8 %11 to i32
  %13 = icmp sge i32 %12, 65
  br i1 %13, label %14, label %18

14:                                               ; preds = %10
  %15 = load i8, ptr %2, align 1
  %16 = sext i8 %15 to i32
  %17 = icmp sle i32 %16, 70
  br i1 %17, label %28, label %18

18:                                               ; preds = %14, %10
  %19 = load i8, ptr %2, align 1
  %20 = sext i8 %19 to i32
  %21 = icmp sge i32 %20, 97
  br i1 %21, label %22, label %26

22:                                               ; preds = %18
  %23 = load i8, ptr %2, align 1
  %24 = sext i8 %23 to i32
  %25 = icmp sle i32 %24, 102
  br label %26

26:                                               ; preds = %22, %18
  %27 = phi i1 [ false, %18 ], [ %25, %22 ]
  br label %28

28:                                               ; preds = %26, %14, %6
  %29 = phi i1 [ true, %14 ], [ true, %6 ], [ %27, %26 ]
  %30 = zext i1 %29 to i32
  ret i32 %30
}

; Function Attrs: nounwind uwtable
define internal i32 @Abc_TtReadHex(ptr noundef %0, ptr noundef %1) #0 {
  %3 = alloca i32, align 4
  %4 = alloca ptr, align 8
  %5 = alloca ptr, align 8
  %6 = alloca i32, align 4
  %7 = alloca i32, align 4
  %8 = alloca i32, align 4
  %9 = alloca i32, align 4
  store ptr %0, ptr %4, align 8
  store ptr %1, ptr %5, align 8
  %10 = load ptr, ptr %5, align 8
  %11 = getelementptr inbounds i8, ptr %10, i64 0
  %12 = load i8, ptr %11, align 1
  %13 = sext i8 %12 to i32
  %14 = icmp eq i32 %13, 48
  br i1 %14, label %15, label %24

15:                                               ; preds = %2
  %16 = load ptr, ptr %5, align 8
  %17 = getelementptr inbounds i8, ptr %16, i64 1
  %18 = load i8, ptr %17, align 1
  %19 = sext i8 %18 to i32
  %20 = icmp eq i32 %19, 120
  br i1 %20, label %21, label %24

21:                                               ; preds = %15
  %22 = load ptr, ptr %5, align 8
  %23 = getelementptr inbounds i8, ptr %22, i64 2
  store ptr %23, ptr %5, align 8
  br label %24

24:                                               ; preds = %21, %15, %2
  store i32 0, ptr %9, align 4
  store i32 0, ptr %6, align 4
  br label %25

25:                                               ; preds = %36, %24
  %26 = load ptr, ptr %5, align 8
  %27 = load i32, ptr %6, align 4
  %28 = sext i32 %27 to i64
  %29 = getelementptr inbounds i8, ptr %26, i64 %28
  %30 = load i8, ptr %29, align 1
  %31 = call i32 @Abc_TtIsHexDigit(i8 noundef signext %30)
  %32 = icmp ne i32 %31, 0
  br i1 %32, label %33, label %39

33:                                               ; preds = %25
  %34 = load i32, ptr %9, align 4
  %35 = add nsw i32 %34, 1
  store i32 %35, ptr %9, align 4
  br label %36

36:                                               ; preds = %33
  %37 = load i32, ptr %6, align 4
  %38 = add nsw i32 %37, 1
  store i32 %38, ptr %6, align 4
  br label %25, !llvm.loop !16

39:                                               ; preds = %25
  %40 = load i32, ptr %9, align 4
  %41 = icmp eq i32 %40, 1
  br i1 %41, label %42, label %90

42:                                               ; preds = %39
  %43 = load ptr, ptr %5, align 8
  %44 = getelementptr inbounds i8, ptr %43, i64 0
  %45 = load i8, ptr %44, align 1
  %46 = sext i8 %45 to i32
  %47 = icmp eq i32 %46, 48
  br i1 %47, label %54, label %48

48:                                               ; preds = %42
  %49 = load ptr, ptr %5, align 8
  %50 = getelementptr inbounds i8, ptr %49, i64 0
  %51 = load i8, ptr %50, align 1
  %52 = sext i8 %51 to i32
  %53 = icmp eq i32 %52, 70
  br i1 %53, label %54, label %63

54:                                               ; preds = %48, %42
  %55 = load ptr, ptr %5, align 8
  %56 = getelementptr inbounds i8, ptr %55, i64 0
  %57 = load i8, ptr %56, align 1
  %58 = sext i8 %57 to i32
  %59 = icmp eq i32 %58, 48
  %60 = select i1 %59, i64 0, i64 -1
  %61 = load ptr, ptr %4, align 8
  %62 = getelementptr inbounds i64, ptr %61, i64 0
  store i64 %60, ptr %62, align 8
  store i32 0, ptr %3, align 4
  br label %148

63:                                               ; preds = %48
  %64 = load ptr, ptr %5, align 8
  %65 = getelementptr inbounds i8, ptr %64, i64 0
  %66 = load i8, ptr %65, align 1
  %67 = sext i8 %66 to i32
  %68 = icmp eq i32 %67, 53
  br i1 %68, label %75, label %69

69:                                               ; preds = %63
  %70 = load ptr, ptr %5, align 8
  %71 = getelementptr inbounds i8, ptr %70, i64 0
  %72 = load i8, ptr %71, align 1
  %73 = sext i8 %72 to i32
  %74 = icmp eq i32 %73, 65
  br i1 %74, label %75, label %89

75:                                               ; preds = %69, %63
  %76 = load ptr, ptr %5, align 8
  %77 = getelementptr inbounds i8, ptr %76, i64 0
  %78 = load i8, ptr %77, align 1
  %79 = sext i8 %78 to i32
  %80 = icmp eq i32 %79, 53
  br i1 %80, label %81, label %83

81:                                               ; preds = %75
  %82 = load i64, ptr @s_Truths6Neg, align 16
  br label %85

83:                                               ; preds = %75
  %84 = load i64, ptr @s_Truths6, align 16
  br label %85

85:                                               ; preds = %83, %81
  %86 = phi i64 [ %82, %81 ], [ %84, %83 ]
  %87 = load ptr, ptr %4, align 8
  %88 = getelementptr inbounds i64, ptr %87, i64 0
  store i64 %86, ptr %88, align 8
  store i32 1, ptr %3, align 4
  br label %148

89:                                               ; preds = %69
  br label %90

90:                                               ; preds = %89, %39
  %91 = load i32, ptr %9, align 4
  %92 = icmp eq i32 %91, 1
  br i1 %92, label %93, label %94

93:                                               ; preds = %90
  br label %97

94:                                               ; preds = %90
  %95 = load i32, ptr %9, align 4
  %96 = call i32 @Abc_Base2Log(i32 noundef %95)
  br label %97

97:                                               ; preds = %94, %93
  %98 = phi i32 [ 0, %93 ], [ %96, %94 ]
  %99 = add nsw i32 2, %98
  store i32 %99, ptr %7, align 4
  %100 = load i32, ptr %7, align 4
  %101 = call i32 @Abc_TtWordNum(i32 noundef %100)
  %102 = sub nsw i32 %101, 1
  store i32 %102, ptr %6, align 4
  br label %103

103:                                              ; preds = %111, %97
  %104 = load i32, ptr %6, align 4
  %105 = icmp sge i32 %104, 0
  br i1 %105, label %106, label %114

106:                                              ; preds = %103
  %107 = load ptr, ptr %4, align 8
  %108 = load i32, ptr %6, align 4
  %109 = sext i32 %108 to i64
  %110 = getelementptr inbounds i64, ptr %107, i64 %109
  store i64 0, ptr %110, align 8
  br label %111

111:                                              ; preds = %106
  %112 = load i32, ptr %6, align 4
  %113 = add nsw i32 %112, -1
  store i32 %113, ptr %6, align 4
  br label %103, !llvm.loop !17

114:                                              ; preds = %103
  store i32 0, ptr %6, align 4
  br label %115

115:                                              ; preds = %132, %114
  %116 = load i32, ptr %6, align 4
  %117 = load i32, ptr %9, align 4
  %118 = icmp slt i32 %116, %117
  br i1 %118, label %119, label %135

119:                                              ; preds = %115
  %120 = load ptr, ptr %5, align 8
  %121 = load i32, ptr %9, align 4
  %122 = sub nsw i32 %121, 1
  %123 = load i32, ptr %6, align 4
  %124 = sub nsw i32 %122, %123
  %125 = sext i32 %124 to i64
  %126 = getelementptr inbounds i8, ptr %120, i64 %125
  %127 = load i8, ptr %126, align 1
  %128 = call i32 @Abc_TtReadHexDigit(i8 noundef signext %127)
  store i32 %128, ptr %8, align 4
  %129 = load ptr, ptr %4, align 8
  %130 = load i32, ptr %6, align 4
  %131 = load i32, ptr %8, align 4
  call void @Abc_TtSetHex(ptr noundef %129, i32 noundef %130, i32 noundef %131)
  br label %132

132:                                              ; preds = %119
  %133 = load i32, ptr %6, align 4
  %134 = add nsw i32 %133, 1
  store i32 %134, ptr %6, align 4
  br label %115, !llvm.loop !18

135:                                              ; preds = %115
  %136 = load i32, ptr %7, align 4
  %137 = icmp slt i32 %136, 6
  br i1 %137, label %138, label %146

138:                                              ; preds = %135
  %139 = load ptr, ptr %4, align 8
  %140 = getelementptr inbounds i64, ptr %139, i64 0
  %141 = load i64, ptr %140, align 8
  %142 = load i32, ptr %7, align 4
  %143 = call i64 @Abc_Tt6Stretch(i64 noundef %141, i32 noundef %142)
  %144 = load ptr, ptr %4, align 8
  %145 = getelementptr inbounds i64, ptr %144, i64 0
  store i64 %143, ptr %145, align 8
  br label %146

146:                                              ; preds = %138, %135
  %147 = load i32, ptr %7, align 4
  store i32 %147, ptr %3, align 4
  br label %148

148:                                              ; preds = %146, %85, %54
  %149 = load i32, ptr %3, align 4
  ret i32 %149
}